target datalayout = "e-m:e-p270:32:32-p271:32:32-p272:64:64-i64:64-i128:128-f80:128-n8:16:32:64-S128"
target triple = "x86_64-pc-linux-gnu"

%"class.cv::Size_" = type { i32, i32 }
%"class.std::valarray.4" = type { i64, ptr }
%"class.cv::Mat" = type { i32, i32, i32, i32, ptr, ptr, ptr, ptr, ptr, ptr, %"struct.cv::MatSize", %"struct.cv::MatStep" }
%"struct.cv::MatSize" = type { ptr }
%"struct.cv::MatStep" = type { ptr, [2 x i64] }
%"class.cv::_InputArray" = type { i32, ptr, %"class.cv::Size_" }
%"class.cv::Point_" = type { double, double }
%"class.cv::Point_.9" = type { i32, i32 }

; Function Attrs: alwaysinline mustprogress nounwind uwtable
define internal noundef i32 @_ZL14_mm_cvtsd_si32Dv2_d(<2 x double> noundef %0) #22 {
  %2 = alloca <2 x double>, align 16
  store <2 x double> %0, ptr %2, align 16, !tbaa !123
  %3 = load <2 x double>, ptr %2, align 16, !tbaa !123
  %4 = call i32 @llvm.x86.sse2.cvtsd2si(<2 x double> %3)
  ret i32 %4
}

; Function Attrs: alwaysinline mustprogress nounwind uwtable
define internal noundef <2 x double> @_ZL10_mm_set_sdd(double noundef %0) #22 {
  %2 = alloca double, align 8
  %3 = alloca <2 x double>, align 16
  store double %0, ptr %2, align 8, !tbaa !128
  %4 = load double, ptr %2, align 8, !tbaa !128
  %5 = insertelement <2 x double> poison, double %4, i32 0
  %6 = insertelement <2 x double> %5, double 0.000000e+00, i32 1
  store <2 x double> %6, ptr %3, align 16, !tbaa !123
  %7 = load <2 x double>, ptr %3, align 16, !tbaa !123
  ret <2 x double> %7
}

; Function Attrs: inlinehint mustprogress uwtable
define internal noundef i32 @_ZL7cvRoundd(double noundef %0) #21 {
  %2 = alloca double, align 8
  %3 = alloca <2 x double>, align 16
  store double %0, ptr %2, align 8, !tbaa !128
  call void @llvm.lifetime.start.p0(i64 16, ptr %3) #3
  %4 = load double, ptr %2, align 8, !tbaa !128
  %5 = call noundef <2 x double> @_ZL10_mm_set_sdd(double noundef %4)
  store <2 x double> %5, ptr %3, align 16, !tbaa !123
  %6 = load <2 x double>, ptr %3, align 16, !tbaa !123
  %7 = call noundef i32 @_ZL14_mm_cvtsd_si32Dv2_d(<2 x double> noundef %6)
  call void @llvm.lifetime.end.p0(i64 16, ptr %3) #3
  ret i32 %7
}

; Function Attrs: inlinehint mustprogress nounwind uwtable
define linkonce_odr hidden void @_ZN2cv6Point_IiEC2Eii(ptr noundef nonnull align 4 dereferenceable(8) %0, i32 noundef %1, i32 noundef %2) unnamed_addr #7 comdat align 2 {
  %4 = alloca ptr, align 8
  %5 = alloca i32, align 4
  %6 = alloca i32, align 4
  store ptr %0, ptr %4, align 8, !tbaa !285
  store i32 %1, ptr %5, align 4, !tbaa !103
  store i32 %2, ptr %6, align 4, !tbaa !103
  %7 = load ptr, ptr %4, align 8
  %8 = getelementptr inbounds nuw %"class.cv::Point_.9", ptr %7, i32 0, i32 0
  %9 = load i32, ptr %5, align 4, !tbaa !103
  store i32 %9, ptr %8, align 4, !tbaa !137
  %10 = getelementptr inbounds nuw %"class.cv::Point_.9", ptr %7, i32 0, i32 1
  %11 = load i32, ptr %6, align 4, !tbaa !103
  store i32 %11, ptr %10, align 4, !tbaa !135
  ret void
}

; Function Attrs: inlinehint mustprogress uwtable
define internal noundef i32 @_ZN2cvL13saturate_castIiEET_d(double noundef %0) #6 {
  %2 = alloca double, align 8
  store double %0, ptr %2, align 8, !tbaa !128
  %3 = load double, ptr %2, align 8, !tbaa !128
  %4 = call noundef i32 @_ZL7cvRoundd(double noundef %3)
  ret i32 %4
}

; Function Attrs: inlinehint mustprogress nounwind uwtable
define linkonce_odr hidden noundef nonnull align 1 dereferenceable(1) ptr @_ZNSt8valarrayIbEixEm(ptr noundef nonnull align 8 dereferenceable(16) %0, i64 noundef %1) #7 comdat align 2 {
  %3 = alloca ptr, align 8
  %4 = alloca i64, align 8
  store ptr %0, ptr %3, align 8, !tbaa !42
  store i64 %1, ptr %4, align 8, !tbaa !36
  %5 = load ptr, ptr %3, align 8
  %6 = getelementptr inbounds nuw %"class.std::valarray.4", ptr %5, i32 0, i32 1
  %7 = load ptr, ptr %6, align 8, !tbaa !47
  %8 = load i64, ptr %4, align 8, !tbaa !36
  %9 = getelementptr inbounds nuw i8, ptr %7, i64 %8
  ret ptr %9
}

; Function Attrs: inlinehint mustprogress nounwind uwtable
define linkonce_odr hidden noundef nonnull align 1 dereferenceable(1) ptr @_ZN2cv3Mat2atIhEERT_NS_6Point_IiEE(ptr noundef nonnull align 8 dereferenceable(96) %0, i64 %1) #7 comdat align 2 {
  %3 = alloca %"class.cv::Point_.9", align 4
  %4 = alloca ptr, align 8
  store i64 %1, ptr %3, align 4
  store ptr %0, ptr %4, align 8, !tbaa !108
  %5 = load ptr, ptr %4, align 8
  %6 = getelementptr inbounds nuw %"class.cv::Mat", ptr %5, i32 0, i32 4
  %7 = load ptr, ptr %6, align 8, !tbaa !133
  %8 = getelementptr inbounds nuw %"class.cv::Mat", ptr %5, i32 0, i32 11
  %9 = getelementptr inbounds nuw %"struct.cv::MatStep", ptr %8, i32 0, i32 0
  %10 = load ptr, ptr %9, align 8, !tbaa !134
  %11 = getelementptr inbounds i64, ptr %10, i64 0
  %12 = load i64, ptr %11, align 8, !tbaa !36
  %13 = getelementptr inbounds nuw %"class.cv::Point_.9", ptr %3, i32 0, i32 1
  %14 = load i32, ptr %13, align 4, !tbaa !135
  %15 = sext i32 %14 to i64
  %16 = mul i64 %12, %15
  %17 = getelementptr inbounds nuw i8, ptr %7, i64 %16
  %18 = getelementptr inbounds nuw %"class.cv::Point_.9", ptr %3, i32 0, i32 0
  %19 = load i32, ptr %18, align 4, !tbaa !137
  %20 = sext i32 %19 to i64
  %21 = getelementptr inbounds i8, ptr %17, i64 %20
  ret ptr %21
}

; Function Attrs: inlinehint mustprogress uwtable
define linkonce_odr hidden i64 @_ZNK2cv6Point_IdEcvNS0_IT_EEIiEEv(ptr noundef nonnull align 8 dereferenceable(16) %0) #6 comdat align 2 {
  %2 = alloca %"class.cv::Point_.9", align 4
  %3 = alloca ptr, align 8
  store ptr %0, ptr %3, align 8, !tbaa !126
  %4 = load ptr, ptr %3, align 8
  %5 = getelementptr inbounds nuw %"class.cv::Point_", ptr %4, i32 0, i32 0
  %6 = load double, ptr %5, align 8, !tbaa !130
  %7 = call noundef i32 @_ZN2cvL13saturate_castIiEET_d(double noundef %6)
  %8 = getelementptr inbounds nuw %"class.cv::Point_", ptr %4, i32 0, i32 1
  %9 = load double, ptr %8, align 8, !tbaa !132
  %10 = call noundef i32 @_ZN2cvL13saturate_castIiEET_d(double noundef %9)
  call void @_ZN2cv6Point_IiEC2Eii(ptr noundef nonnull align 4 dereferenceable(8) %2, i32 noundef %7, i32 noundef %10)
  %11 = load i64, ptr %2, align 4
  ret i64 %11
}

; Function Attrs: inlinehint mustprogress nounwind uwtable
define linkonce_odr hidden void @_ZN2cv6Point_IdEC2Edd(ptr noundef nonnull align 8 dereferenceable(16) %0, double noundef %1, double noundef %2) unnamed_addr #7 comdat align 2 {
  %4 = alloca ptr, align 8
  %5 = alloca double, align 8
  %6 = alloca double, align 8
  store ptr %0, ptr %4, align 8, !tbaa !126
  store double %1, ptr %5, align 8, !tbaa !128
  store double %2, ptr %6, align 8, !tbaa !128
  %7 = load ptr, ptr %4, align 8
  %8 = getelementptr inbounds nuw %"class.cv::Point_", ptr %7, i32 0, i32 0
  %9 = load double, ptr %5, align 8, !tbaa !128
  store double %9, ptr %8, align 8, !tbaa !130
  %10 = getelementptr inbounds nuw %"class.cv::Point_", ptr %7, i32 0, i32 1
  %11 = load double, ptr %6, align 8, !tbaa !128
  store double %11, ptr %10, align 8, !tbaa !132
  ret void
}

; Function Attrs: inlinehint mustprogress uwtable
define linkonce_odr hidden void @_ZNK2cv11_InputArray6getMatEi(ptr dead_on_unwind noalias writable sret(%"class.cv::Mat") align 8 %0, ptr noundef nonnull align 8 dereferenceable(24) %1, i32 noundef %2) #6 comdat align 2 {
  %4 = alloca ptr, align 8
  %5 = alloca ptr, align 8
  %6 = alloca i32, align 4
  store ptr %0, ptr %4, align 8
  store ptr %1, ptr %5, align 8, !tbaa !101
  store i32 %2, ptr %6, align 4, !tbaa !103
  %7 = load ptr, ptr %5, align 8
  %8 = call noundef i32 @_ZNK2cv11_InputArray4kindEv(ptr noundef nonnull align 8 dereferenceable(24) %7)
  %9 = icmp eq i32 %8, 65536
  br i1 %9, label %10, label %16

10:                                               ; preds = %3
  %11 = load i32, ptr %6, align 4, !tbaa !103
  %12 = icmp slt i32 %11, 0
  br i1 %12, label %13, label %16

13:                                               ; preds = %10
  %14 = getelementptr inbounds nuw %"class.cv::_InputArray", ptr %7, i32 0, i32 1
  %15 = load ptr, ptr %14, align 8, !tbaa !106
  call void @_ZN2cv3MatC1ERKS0_(ptr noundef nonnull align 8 dereferenceable(96) %0, ptr noundef nonnull align 8 dereferenceable(96) %15)
  br label %18

16:                                               ; preds = %10, %3
  %17 = load i32, ptr %6, align 4, !tbaa !103
  call void @_ZNK2cv11_InputArray7getMat_Ei(ptr dead_on_unwind writable sret(%"class.cv::Mat") align 8 %0, ptr noundef nonnull align 8 dereferenceable(24) %7, i32 noundef %17)
  br label %18

18:                                               ; preds = %16, %13
  ret void
}

; Function Attrs: inlinehint mustprogress nounwind uwtable
define linkonce_odr hidden void @_ZN2cv5Size_IiEC2Eii(ptr noundef nonnull align 4 dereferenceable(8) %0, i32 noundef %1, i32 noundef %2) unnamed_addr #7 comdat align 2 {
  %4 = alloca ptr, align 8
  %5 = alloca i32, align 4
  %6 = alloca i32, align 4
  store ptr %0, ptr %4, align 8, !tbaa !3
  store i32 %1, ptr %5, align 4, !tbaa !103
  store i32 %2, ptr %6, align 4, !tbaa !103
  %7 = load ptr, ptr %4, align 8
  %8 = getelementptr inbounds nuw %"class.cv::Size_", ptr %7, i32 0, i32 0
  %9 = load i32, ptr %5, align 4, !tbaa !103
  store i32 %9, ptr %8, align 4, !tbaa !17
  %10 = getelementptr inbounds nuw %"class.cv::Size_", ptr %7, i32 0, i32 1
  %11 = load i32, ptr %6, align 4, !tbaa !103
  store i32 %11, ptr %10, align 4, !tbaa !14
  ret void
}

; Function Attrs: inlinehint mustprogress nounwind uwtable
define linkonce_odr hidden noundef ptr @_ZN2cv8get_dataIbEEPKT_RKSt8valarrayIS1_E(ptr noundef nonnull align 8 dereferenceable(16) %0) #7 comdat {
  %2 = alloca ptr, align 8
  store ptr %0, ptr %2, align 8, !tbaa !42
  %3 = load ptr, ptr %2, align 8, !tbaa !42
  %4 = call noundef nonnull align 1 dereferenceable(1) ptr @_ZNSt8valarrayIbEixEm(ptr noundef nonnull align 8 dereferenceable(16) %3, i64 noundef 0) #3
  ret ptr %4
}

; Function Attrs: mustprogress uwtable
define hidden void @_ZN2cv11bioinspired36TransientAreasSegmentationModuleImpl28_convertValarrayBuffer2cvMatERKSt8valarrayIbEjjRKNS_12_OutputArrayE(ptr noundef nonnull align 8 dereferenceable(472) %0, ptr noundef nonnull align 8 dereferenceable(16) %1, i32 noundef %2, i32 noundef %3, ptr noundef nonnull align 8 dereferenceable(24) %4) #4 align 2 personality ptr @__gxx_personality_v0 {
  %6 = alloca ptr, align 8
  %7 = alloca ptr, align 8
  %8 = alloca i32, align 4
  %9 = alloca i32, align 4
  %10 = alloca ptr, align 8
  %11 = alloca ptr, align 8
  %12 = alloca %"class.cv::Size_", align 4
  %13 = alloca %"class.cv::Mat", align 8
  %14 = alloca i32, align 4
  %15 = alloca i32, align 4
  %16 = alloca i32, align 4
  %17 = alloca %"class.cv::Point_", align 8
  %18 = alloca ptr, align 8
  %19 = alloca i32, align 4
  %20 = alloca %"class.cv::Point_.9", align 4
  store ptr %0, ptr %6, align 8, !tbaa !12
  store ptr %1, ptr %7, align 8, !tbaa !42
  store i32 %2, ptr %8, align 4, !tbaa !103
  store i32 %3, ptr %9, align 4, !tbaa !103
  store ptr %4, ptr %10, align 8, !tbaa !114
  call void @llvm.lifetime.start.p0(i64 8, ptr %11) #3
  %21 = load ptr, ptr %7, align 8, !tbaa !42
  %22 = call noundef ptr @_ZN2cv8get_dataIbEEPKT_RKSt8valarrayIS1_E(ptr noundef nonnull align 8 dereferenceable(16) %21)
  store ptr %22, ptr %11, align 8, !tbaa !53
  %23 = load ptr, ptr %10, align 8, !tbaa !114
  %24 = load i32, ptr %9, align 4, !tbaa !103
  %25 = load i32, ptr %8, align 4, !tbaa !103
  call void @_ZN2cv5Size_IiEC2Eii(ptr noundef nonnull align 4 dereferenceable(8) %12, i32 noundef %24, i32 noundef %25)
  %26 = load i64, ptr %12, align 4
  call void @_ZNK2cv12_OutputArray6createENS_5Size_IiEEiibNS0_9DepthMaskE(ptr noundef nonnull align 8 dereferenceable(24) %23, i64 %26, i32 noundef 0, i32 noundef -1, i1 noundef zeroext false, i32 noundef 0)
  call void @llvm.lifetime.start.p0(i64 96, ptr %13) #3
  %27 = load ptr, ptr %10, align 8, !tbaa !114
  call void @_ZNK2cv11_InputArray6getMatEi(ptr dead_on_unwind writable sret(%"class.cv::Mat") align 8 %13, ptr noundef nonnull align 8 dereferenceable(24) %27, i32 noundef -1)
  call void @llvm.lifetime.start.p0(i64 4, ptr %14) #3
  store i32 0, ptr %14, align 4, !tbaa !103
  br label %28

28:                                               ; preds = %63, %5
  %29 = load i32, ptr %14, align 4, !tbaa !103
  %30 = load i32, ptr %8, align 4, !tbaa !103
  %31 = icmp ult i32 %29, %30
  br i1 %31, label %33, label %32

32:                                               ; preds = %28
  store i32 2, ptr %15, align 4
  call void @llvm.lifetime.end.p0(i64 4, ptr %14) #3
  br label %66

33:                                               ; preds = %28
  call void @llvm.lifetime.start.p0(i64 4, ptr %16) #3
  store i32 0, ptr %16, align 4, !tbaa !103
  br label %34

34:                                               ; preds = %55, %33
  %35 = load i32, ptr %16, align 4, !tbaa !103
  %36 = load i32, ptr %9, align 4, !tbaa !103
  %37 = icmp ult i32 %35, %36
  br i1 %37, label %39, label %38

38:                                               ; preds = %34
  store i32 5, ptr %15, align 4
  call void @llvm.lifetime.end.p0(i64 4, ptr %16) #3
  br label %62

39:                                               ; preds = %34
  call void @llvm.lifetime.start.p0(i64 16, ptr %17) #3
  %40 = load i32, ptr %16, align 4, !tbaa !103
  %41 = uitofp i32 %40 to double
  %42 = load i32, ptr %14, align 4, !tbaa !103
  %43 = uitofp i32 %42 to double
  invoke void @_ZN2cv6Point_IdEC2Edd(ptr noundef nonnull align 8 dereferenceable(16) %17, double noundef %41, double noundef %43)
          to label %44 unwind label %58

44:                                               ; preds = %39
  %45 = load ptr, ptr %11, align 8, !tbaa !53
  %46 = getelementptr inbounds nuw i8, ptr %45, i32 1
  store ptr %46, ptr %11, align 8, !tbaa !53
  %47 = load i8, ptr %45, align 1, !tbaa !48, !range !56, !noundef !57
  %48 = trunc i8 %47 to i1
  %49 = zext i1 %48 to i8
  %50 = invoke i64 @_ZNK2cv6Point_IdEcvNS0_IT_EEIiEEv(ptr noundef nonnull align 8 dereferenceable(16) %17)
          to label %51 unwind label %58

51:                                               ; preds = %44
  store i64 %50, ptr %20, align 4
  %52 = load i64, ptr %20, align 4
  %53 = invoke noundef nonnull align 1 dereferenceable(1) ptr @_ZN2cv3Mat2atIhEERT_NS_6Point_IiEE(ptr noundef nonnull align 8 dereferenceable(96) %13, i64 %52)
          to label %54 unwind label %58

54:                                               ; preds = %51
  store i8 %49, ptr %53, align 1, !tbaa !123
  call void @llvm.lifetime.end.p0(i64 16, ptr %17) #3
  br label %55

55:                                               ; preds = %54
  %56 = load i32, ptr %16, align 4, !tbaa !103
  %57 = add i32 %56, 1
  store i32 %57, ptr %16, align 4, !tbaa !103
  br label %34, !llvm.loop !124

58:                                               ; preds = %51, %44, %39
  %59 = landingpad { ptr, i32 }
          cleanup
  %60 = extractvalue { ptr, i32 } %59, 0
  store ptr %60, ptr %18, align 8
  %61 = extractvalue { ptr, i32 } %59, 1
  store i32 %61, ptr %19, align 4
  call void @llvm.lifetime.end.p0(i64 16, ptr %17) #3
  call void @llvm.lifetime.end.p0(i64 4, ptr %16) #3
  call void @llvm.lifetime.end.p0(i64 4, ptr %14) #3
  call void @_ZN2cv3MatD1Ev(ptr noundef nonnull align 8 dereferenceable(96) %13) #3
  call void @llvm.lifetime.end.p0(i64 96, ptr %13) #3
  call void @llvm.lifetime.end.p0(i64 8, ptr %11) #3
  br label %67

62:                                               ; preds = %38
  br label %63

63:                                               ; preds = %62
  %64 = load i32, ptr %14, align 4, !tbaa !103
  %65 = add i32 %64, 1
  store i32 %65, ptr %14, align 4, !tbaa !103
  br label %28, !llvm.loop !125

66:                                               ; preds = %32
  call void @_ZN2cv3MatD1Ev(ptr noundef nonnull align 8 dereferenceable(96) %13) #3
  call void @llvm.lifetime.end.p0(i64 96, ptr %13) #3
  call void @llvm.lifetime.end.p0(i64 8, ptr %11) #3
  ret void

67:                                               ; preds = %58
  %68 = load ptr, ptr %18, align 8
  %69 = load i32, ptr %19, align 4
  %70 = insertvalue { ptr, i32 } poison, ptr %68, 0
  %71 = insertvalue { ptr, i32 } %70, i32 %69, 1
  resume { ptr, i32 } %71
}