; Function Attrs: mustprogress uwtable
define hidden void @_ZN2cv11bioinspired36TransientAreasSegmentationModuleImpl28_convertValarrayBuffer2cvMatERKSt8valarrayIbEjjRKNS_12_OutputArrayE(ptr nonnull readnone align 8 captures(none) %0, ptr noundef nonnull readonly align 8 captures(none) dereferenceable(16) %1, i32 noundef %2, i32 noundef %3, ptr noundef nonnull align 8 dereferenceable(24) %4) local_unnamed_addr #16 align 2 personality ptr @__gxx_personality_v0 {
  %6 = alloca %"class.cv::Mat", align 8
  %7 = getelementptr inbounds nuw i8, ptr %1, i64 8
  %8 = load ptr, ptr %7, align 8, !tbaa !41
  %.sroa.2.0.insert.ext = zext i32 %2 to i64
  %.sroa.2.0.insert.shift = shl nuw i64 %.sroa.2.0.insert.ext, 32
  %.sroa.018.0.insert.ext = zext i32 %3 to i64
  %.sroa.018.0.insert.insert = or disjoint i64 %.sroa.2.0.insert.shift, %.sroa.018.0.insert.ext
  tail call void @_ZNK2cv12_OutputArray6createENS_5Size_IiEEiibNS0_9DepthMaskE(ptr noundef nonnull align 8 dereferenceable(24) %4, i64 %.sroa.018.0.insert.insert, i32 noundef 0, i32 noundef -1, i1 noundef zeroext false, i32 noundef 0)
  call void @llvm.lifetime.start.p0(i64 96, ptr nonnull %6) #27
  %9 = tail call noundef i32 @_ZNK2cv11_InputArray4kindEv(ptr noundef nonnull align 8 dereferenceable(24) %4), !noalias !155
  %10 = icmp eq i32 %9, 65536
  br i1 %10, label %11, label %14

11:                                               ; preds = %5
  %12 = getelementptr inbounds nuw i8, ptr %4, i64 8
  %13 = load ptr, ptr %12, align 8, !tbaa !139, !noalias !155
  call void @_ZN2cv3MatC1ERKS0_(ptr noundef nonnull align 8 dereferenceable(96) %6, ptr noundef nonnull align 8 dereferenceable(96) %13)
  br label %_ZNK2cv11_InputArray6getMatEi.exit

14:                                               ; preds = %5
  call void @_ZNK2cv11_InputArray7getMat_Ei(ptr dead_on_unwind nonnull writable sret(%"class.cv::Mat") align 8 %6, ptr noundef nonnull align 8 dereferenceable(24) %4, i32 noundef -1)
  br label %_ZNK2cv11_InputArray6getMatEi.exit

_ZNK2cv11_InputArray6getMatEi.exit:               ; preds = %11, %14
  %.not = icmp eq i32 %2, 0
  br i1 %.not, label %._crit_edge23, label %.preheader.lr.ph

.preheader.lr.ph:                                 ; preds = %_ZNK2cv11_InputArray6getMatEi.exit
  %.not24 = icmp eq i32 %3, 0
  %15 = getelementptr inbounds nuw i8, ptr %6, i64 16
  %16 = getelementptr inbounds nuw i8, ptr %6, i64 72
  br i1 %.not24, label %._crit_edge23, label %.preheader.us

.preheader.us:                                    ; preds = %.preheader.lr.ph, %._crit_edge.us
  %.022.us = phi ptr [ %25, %._crit_edge.us ], [ %8, %.preheader.lr.ph ]
  %.01521.us = phi i32 [ %34, %._crit_edge.us ], [ 0, %.preheader.lr.ph ]
  %17 = uitofp i32 %.01521.us to double
  %18 = insertelement <2 x double> poison, double %17, i64 0
  %19 = call noundef i32 @llvm.x86.sse2.cvtsd2si(<2 x double> %18)
  %20 = sext i32 %19 to i64
  br label %21

21:                                               ; preds = %.preheader.us, %21
  %.120.us = phi ptr [ %.022.us, %.preheader.us ], [ %25, %21 ]
  %.01619.us = phi i32 [ 0, %.preheader.us ], [ %33, %21 ]
  %22 = uitofp i32 %.01619.us to double
  %.sroa.0.0.vec.insert.us = insertelement <2 x double> poison, double %22, i64 0
  %23 = load i8, ptr %.120.us, align 1, !tbaa !54, !range !158, !noundef !159
  %24 = call noundef i32 @llvm.x86.sse2.cvtsd2si(<2 x double> %.sroa.0.0.vec.insert.us)
  %25 = getelementptr inbounds nuw i8, ptr %.120.us, i64 1
  %26 = load ptr, ptr %15, align 8, !tbaa !160
  %27 = load ptr, ptr %16, align 8, !tbaa !161
  %28 = load i64, ptr %27, align 8, !tbaa !127
  %29 = mul i64 %28, %20
  %30 = getelementptr inbounds nuw i8, ptr %26, i64 %29
  %31 = sext i32 %24 to i64
  %32 = getelementptr inbounds i8, ptr %30, i64 %31
  store i8 %23, ptr %32, align 1, !tbaa !77
  %33 = add nuw i32 %.01619.us, 1
  %exitcond.not = icmp eq i32 %33, %3
  br i1 %exitcond.not, label %._crit_edge.us, label %21, !llvm.loop !162

._crit_edge.us:                                   ; preds = %21
  %34 = add nuw i32 %.01521.us, 1
  %exitcond26.not = icmp eq i32 %34, %2
  br i1 %exitcond26.not, label %._crit_edge23, label %.preheader.us, !llvm.loop !163

._crit_edge23:                                    ; preds = %._crit_edge.us, %.preheader.lr.ph, %_ZNK2cv11_InputArray6getMatEi.exit
  call void @_ZN2cv3MatD1Ev(ptr noundef nonnull align 8 dereferenceable(96) %6) #27
  call void @llvm.lifetime.end.p0(i64 96, ptr nonnull %6) #27
  ret void
}